; Function Attrs: mustprogress nofree norecurse nosync nounwind willreturn memory(read, argmem: readwrite, inaccessiblemem: none) uwtable
define void @_ZN5arrow7compute14SelectKOptionsC2ElSt6vectorINS0_7SortKeyESaIS3_EE(ptr noundef nonnull writeonly align 8 captures(none) dereferenceable(48) initializes((0, 48)) %0, i64 noundef %1, ptr noundef captures(none) %2) unnamed_addr #3 align 2 {
  %4 = load ptr, ptr @_ZN5arrow7compute8internal12_GLOBAL__N_119kSelectKOptionsTypeE, align 8, !tbaa !32
  %5 = getelementptr inbounds nuw i8, ptr %0, i64 8
  store ptr %4, ptr %5, align 8, !tbaa !35
  store ptr getelementptr inbounds nuw inrange(-16, 16) (i8, ptr @_ZTVN5arrow7compute14SelectKOptionsE, i64 16), ptr %0, align 8, !tbaa !37
  %6 = getelementptr inbounds nuw i8, ptr %0, i64 16
  store i64 %1, ptr %6, align 8, !tbaa !76
  %7 = getelementptr inbounds nuw i8, ptr %0, i64 24
  %8 = load ptr, ptr %2, align 8, !tbaa !59
  store ptr %8, ptr %7, align 8, !tbaa !59
  %9 = getelementptr inbounds nuw i8, ptr %0, i64 32
  %10 = getelementptr inbounds nuw i8, ptr %2, i64 8
  %11 = load ptr, ptr %10, align 8, !tbaa !62
  store ptr %11, ptr %9, align 8, !tbaa !62
  %12 = getelementptr inbounds nuw i8, ptr %0, i64 40
  %13 = getelementptr inbounds nuw i8, ptr %2, i64 16
  %14 = load ptr, ptr %13, align 8, !tbaa !63
  store ptr %14, ptr %12, align 8, !tbaa !63
  tail call void @llvm.memset.p0.i64(ptr noundef nonnull align 8 dereferenceable(24) %2, i8 0, i64 24, i1 false)
  ret void
}